target datalayout = "e-m:e-p270:32:32-p271:32:32-p272:64:64-i64:64-i128:128-f80:128-n8:16:32:64-S128"
target triple = "x86_64-pc-linux-gnu"

%class.rational = type { %class.mpq }
%class.mpq = type { %class.mpz, %class.mpz }
%class.mpz = type { i32, i8, ptr }
%"class.opt::cores" = type <{ ptr, ptr, ptr, %class.random_gen, [4 x i8], %class.rational, %class.vector, %class.obj_map, i32, i32, i8, [3 x i8], i32, i32, i8, [3 x i8] }>
%class.random_gen = type { i32 }
%class.vector = type { ptr }
%class.obj_map = type { %class.core_hashtable }
%class.core_hashtable = type <{ ptr, i32, i32, i32, [4 x i8] }>
%class.anon.70 = type { ptr }
%"struct.obj_map<expr, rational>::key_data" = type { ptr, %class.rational }
%"struct.__gnu_cxx::__ops::_Val_comp_iter.73" = type { %class.anon.70 }
%"class.obj_map<expr, rational>::obj_map_entry" = type { %"struct.obj_map<expr, rational>::key_data" }

@_ZN8rational13g_mpq_managerE = external global ptr, align 8

; Function Attrs: inlinehint mustprogress nounwind uwtable
define linkonce_odr hidden noundef zeroext i1 @_ZNK3mpz8is_smallEv(ptr noundef nonnull align 8 dereferenceable(16) %0) #8 comdat align 2 {
  %2 = alloca ptr, align 8
  store ptr %0, ptr %2, align 8, !tbaa !180
  %3 = load ptr, ptr %2, align 8
  %4 = getelementptr inbounds nuw %class.mpz, ptr %3, i32 0, i32 1
  %5 = load i8, ptr %4, align 4
  %6 = and i8 %5, 1
  %7 = zext i8 %6 to i32
  %8 = icmp eq i32 %7, 0
  ret i1 %8
}

; Function Attrs: inlinehint mustprogress nounwind uwtable
define linkonce_odr hidden noundef i32 @_ZNK3mpz5valueEv(ptr noundef nonnull align 8 dereferenceable(16) %0) #8 comdat align 2 {
  %2 = alloca ptr, align 8
  store ptr %0, ptr %2, align 8, !tbaa !180
  %3 = load ptr, ptr %2, align 8
  %4 = getelementptr inbounds nuw %class.mpz, ptr %3, i32 0, i32 0
  %5 = load i32, ptr %4, align 8, !tbaa !182
  ret i32 %5
}

; Function Attrs: mustprogress uwtable
define linkonce_odr hidden noundef zeroext i1 @_ZN11mpz_managerILb1EE8is_smallERK3mpz(ptr noundef nonnull align 8 dereferenceable(16) %0) #6 comdat align 2 {
  %2 = alloca ptr, align 8
  store ptr %0, ptr %2, align 8, !tbaa !180
  %3 = load ptr, ptr %2, align 8, !tbaa !180
  %4 = call noundef zeroext i1 @_ZNK3mpz8is_smallEv(ptr noundef nonnull align 8 dereferenceable(16) %3)
  ret i1 %4
}

; Function Attrs: mustprogress uwtable
define linkonce_odr hidden noundef zeroext i1 @_ZN11mpz_managerILb1EE6is_oneERK3mpz(ptr noundef nonnull align 8 dereferenceable(16) %0) #6 comdat align 2 {
  %2 = alloca ptr, align 8
  store ptr %0, ptr %2, align 8, !tbaa !180
  %3 = load ptr, ptr %2, align 8, !tbaa !180
  %4 = call noundef zeroext i1 @_ZN11mpz_managerILb1EE8is_smallERK3mpz(ptr noundef nonnull align 8 dereferenceable(16) %3)
  br i1 %4, label %5, label %9

5:                                                ; preds = %1
  %6 = load ptr, ptr %2, align 8, !tbaa !180
  %7 = call noundef i32 @_ZNK3mpz5valueEv(ptr noundef nonnull align 8 dereferenceable(16) %6)
  %8 = icmp eq i32 %7, 1
  br label %9

9:                                                ; preds = %5, %1
  %10 = phi i1 [ false, %1 ], [ %8, %5 ]
  ret i1 %10
}

; Function Attrs: mustprogress uwtable
define linkonce_odr hidden noundef zeroext i1 @_ZN11mpz_managerILb1EE2ltERK3mpzS3_(ptr noundef nonnull align 8 dereferenceable(600) %0, ptr noundef nonnull align 8 dereferenceable(16) %1, ptr noundef nonnull align 8 dereferenceable(16) %2) #6 comdat align 2 {
  %4 = alloca i1, align 1
  %5 = alloca ptr, align 8
  %6 = alloca ptr, align 8
  %7 = alloca ptr, align 8
  store ptr %0, ptr %5, align 8, !tbaa !184
  store ptr %1, ptr %6, align 8, !tbaa !180
  store ptr %2, ptr %7, align 8, !tbaa !180
  %8 = load ptr, ptr %5, align 8
  %9 = load ptr, ptr %6, align 8, !tbaa !180
  %10 = call noundef zeroext i1 @_ZN11mpz_managerILb1EE8is_smallERK3mpz(ptr noundef nonnull align 8 dereferenceable(16) %9)
  br i1 %10, label %11, label %20

11:                                               ; preds = %3
  %12 = load ptr, ptr %7, align 8, !tbaa !180
  %13 = call noundef zeroext i1 @_ZN11mpz_managerILb1EE8is_smallERK3mpz(ptr noundef nonnull align 8 dereferenceable(16) %12)
  br i1 %13, label %14, label %20

14:                                               ; preds = %11
  %15 = load ptr, ptr %6, align 8, !tbaa !180
  %16 = call noundef i32 @_ZNK3mpz5valueEv(ptr noundef nonnull align 8 dereferenceable(16) %15)
  %17 = load ptr, ptr %7, align 8, !tbaa !180
  %18 = call noundef i32 @_ZNK3mpz5valueEv(ptr noundef nonnull align 8 dereferenceable(16) %17)
  %19 = icmp slt i32 %16, %18
  store i1 %19, ptr %4, align 1
  br label %25

20:                                               ; preds = %11, %3
  %21 = load ptr, ptr %6, align 8, !tbaa !180
  %22 = load ptr, ptr %7, align 8, !tbaa !180
  %23 = call noundef i32 @_ZN11mpz_managerILb1EE11big_compareERK3mpzS3_(ptr noundef nonnull align 8 dereferenceable(600) %8, ptr noundef nonnull align 8 dereferenceable(16) %21, ptr noundef nonnull align 8 dereferenceable(16) %22)
  %24 = icmp slt i32 %23, 0
  store i1 %24, ptr %4, align 1
  br label %25

25:                                               ; preds = %20, %14
  %26 = load i1, ptr %4, align 1
  ret i1 %26
}

; Function Attrs: mustprogress uwtable
define linkonce_odr hidden noundef zeroext i1 @_ZN11mpq_managerILb1EE6is_oneERK3mpz(ptr noundef nonnull align 8 dereferenceable(16) %0) #6 comdat align 2 {
  %2 = alloca ptr, align 8
  store ptr %0, ptr %2, align 8, !tbaa !180
  %3 = load ptr, ptr %2, align 8, !tbaa !180
  %4 = call noundef zeroext i1 @_ZN11mpz_managerILb1EE6is_oneERK3mpz(ptr noundef nonnull align 8 dereferenceable(16) %3)
  ret i1 %4
}

; Function Attrs: mustprogress uwtable
define linkonce_odr hidden noundef zeroext i1 @_ZN11mpq_managerILb1EE2ltERK3mpzS3_(ptr noundef nonnull align 8 dereferenceable(728) %0, ptr noundef nonnull align 8 dereferenceable(16) %1, ptr noundef nonnull align 8 dereferenceable(16) %2) #6 comdat align 2 {
  %4 = alloca ptr, align 8
  %5 = alloca ptr, align 8
  %6 = alloca ptr, align 8
  store ptr %0, ptr %4, align 8, !tbaa !65
  store ptr %1, ptr %5, align 8, !tbaa !180
  store ptr %2, ptr %6, align 8, !tbaa !180
  %7 = load ptr, ptr %4, align 8
  %8 = load ptr, ptr %5, align 8, !tbaa !180
  %9 = load ptr, ptr %6, align 8, !tbaa !180
  %10 = call noundef zeroext i1 @_ZN11mpz_managerILb1EE2ltERK3mpzS3_(ptr noundef nonnull align 8 dereferenceable(600) %7, ptr noundef nonnull align 8 dereferenceable(16) %8, ptr noundef nonnull align 8 dereferenceable(16) %9)
  ret i1 %10
}

; Function Attrs: mustprogress uwtable
define linkonce_odr hidden noundef zeroext i1 @_ZN11mpq_managerILb1EE6is_intERK3mpq(ptr noundef nonnull align 8 dereferenceable(32) %0) #6 comdat align 2 {
  %2 = alloca ptr, align 8
  store ptr %0, ptr %2, align 8, !tbaa !178
  %3 = load ptr, ptr %2, align 8, !tbaa !178
  %4 = getelementptr inbounds nuw %class.mpq, ptr %3, i32 0, i32 1
  %5 = call noundef zeroext i1 @_ZN11mpq_managerILb1EE6is_oneERK3mpz(ptr noundef nonnull align 8 dereferenceable(16) %4)
  ret i1 %5
}

; Function Attrs: mustprogress uwtable
define linkonce_odr hidden noundef zeroext i1 @_ZN11mpq_managerILb1EE2ltERK3mpqS3_(ptr noundef nonnull align 8 dereferenceable(728) %0, ptr noundef nonnull align 8 dereferenceable(32) %1, ptr noundef nonnull align 8 dereferenceable(32) %2) #6 comdat align 2 {
  %4 = alloca i1, align 1
  %5 = alloca ptr, align 8
  %6 = alloca ptr, align 8
  %7 = alloca ptr, align 8
  store ptr %0, ptr %5, align 8, !tbaa !65
  store ptr %1, ptr %6, align 8, !tbaa !178
  store ptr %2, ptr %7, align 8, !tbaa !178
  %8 = load ptr, ptr %5, align 8
  %9 = load ptr, ptr %6, align 8, !tbaa !178
  %10 = call noundef zeroext i1 @_ZN11mpq_managerILb1EE6is_intERK3mpq(ptr noundef nonnull align 8 dereferenceable(32) %9)
  br i1 %10, label %11, label %20

11:                                               ; preds = %3
  %12 = load ptr, ptr %7, align 8, !tbaa !178
  %13 = call noundef zeroext i1 @_ZN11mpq_managerILb1EE6is_intERK3mpq(ptr noundef nonnull align 8 dereferenceable(32) %12)
  br i1 %13, label %14, label %20

14:                                               ; preds = %11
  %15 = load ptr, ptr %6, align 8, !tbaa !178
  %16 = getelementptr inbounds nuw %class.mpq, ptr %15, i32 0, i32 0
  %17 = load ptr, ptr %7, align 8, !tbaa !178
  %18 = getelementptr inbounds nuw %class.mpq, ptr %17, i32 0, i32 0
  %19 = call noundef zeroext i1 @_ZN11mpq_managerILb1EE2ltERK3mpzS3_(ptr noundef nonnull align 8 dereferenceable(728) %8, ptr noundef nonnull align 8 dereferenceable(16) %16, ptr noundef nonnull align 8 dereferenceable(16) %18)
  store i1 %19, ptr %4, align 1
  br label %24

20:                                               ; preds = %11, %3
  %21 = load ptr, ptr %6, align 8, !tbaa !178
  %22 = load ptr, ptr %7, align 8, !tbaa !178
  %23 = call noundef zeroext i1 @_ZN11mpq_managerILb1EE6rat_ltERK3mpqS3_(ptr noundef nonnull align 8 dereferenceable(728) %8, ptr noundef nonnull align 8 dereferenceable(32) %21, ptr noundef nonnull align 8 dereferenceable(32) %22)
  store i1 %23, ptr %4, align 1
  br label %24

24:                                               ; preds = %20, %14
  %25 = load i1, ptr %4, align 1
  ret i1 %25
}

; Function Attrs: mustprogress nounwind uwtable
define linkonce_odr hidden noundef nonnull align 8 dereferenceable(728) ptr @_ZN8rational1mEv() #4 comdat align 2 {
  %1 = load ptr, ptr @_ZN8rational13g_mpq_managerE, align 8, !tbaa !65
  ret ptr %1
}

; Function Attrs: mustprogress nounwind uwtable
define linkonce_odr hidden noundef nonnull align 8 dereferenceable(40) ptr @_ZN7obj_mapI4expr8rationalE13obj_map_entry8get_dataEv(ptr noundef nonnull align 8 dereferenceable(40) %0) #4 comdat align 2 {
  %2 = alloca ptr, align 8
  store ptr %0, ptr %2, align 8, !tbaa !348
  %3 = load ptr, ptr %2, align 8
  %4 = getelementptr inbounds nuw %"class.obj_map<expr, rational>::obj_map_entry", ptr %3, i32 0, i32 0
  ret ptr %4
}

; Function Attrs: inlinehint mustprogress uwtable
define linkonce_odr hidden noundef zeroext i1 @_ZltRK8rationalS1_(ptr noundef nonnull align 8 dereferenceable(32) %0, ptr noundef nonnull align 8 dereferenceable(32) %1) #7 comdat {
  %3 = alloca ptr, align 8
  %4 = alloca ptr, align 8
  store ptr %0, ptr %3, align 8, !tbaa !58
  store ptr %1, ptr %4, align 8, !tbaa !58
  %5 = call noundef nonnull align 8 dereferenceable(728) ptr @_ZN8rational1mEv()
  %6 = load ptr, ptr %3, align 8, !tbaa !58
  %7 = getelementptr inbounds nuw %class.rational, ptr %6, i32 0, i32 0
  %8 = load ptr, ptr %4, align 8, !tbaa !58
  %9 = getelementptr inbounds nuw %class.rational, ptr %8, i32 0, i32 0
  %10 = call noundef zeroext i1 @_ZN11mpq_managerILb1EE2ltERK3mpqS3_(ptr noundef nonnull align 8 dereferenceable(728) %5, ptr noundef nonnull align 8 dereferenceable(32) %7, ptr noundef nonnull align 8 dereferenceable(32) %9)
  ret i1 %10
}

; Function Attrs: mustprogress uwtable
define linkonce_odr hidden noundef nonnull align 8 dereferenceable(32) ptr @_ZN7obj_mapI4expr8rationalE4findEPS0_(ptr noundef nonnull align 8 dereferenceable(24) %0, ptr noundef %1) #6 comdat align 2 {
  %3 = alloca ptr, align 8
  %4 = alloca ptr, align 8
  %5 = alloca ptr, align 8
  store ptr %0, ptr %3, align 8, !tbaa !63
  store ptr %1, ptr %4, align 8, !tbaa !75
  %6 = load ptr, ptr %3, align 8
  call void @llvm.lifetime.start.p0(i64 8, ptr %5) #3
  %7 = load ptr, ptr %4, align 8, !tbaa !75
  %8 = call noundef ptr @_ZNK7obj_mapI4expr8rationalE9find_coreEPS0_(ptr noundef nonnull align 8 dereferenceable(24) %6, ptr noundef %7)
  store ptr %8, ptr %5, align 8, !tbaa !348
  %9 = load ptr, ptr %5, align 8, !tbaa !348
  %10 = call noundef nonnull align 8 dereferenceable(40) ptr @_ZN7obj_mapI4expr8rationalE13obj_map_entry8get_dataEv(ptr noundef nonnull align 8 dereferenceable(40) %9)
  %11 = getelementptr inbounds nuw %"struct.obj_map<expr, rational>::key_data", ptr %10, i32 0, i32 1
  call void @llvm.lifetime.end.p0(i64 8, ptr %5) #3
  ret ptr %11
}

; Function Attrs: inlinehint mustprogress uwtable
define linkonce_odr hidden noundef zeroext i1 @_ZgtRK8rationalS1_(ptr noundef nonnull align 8 dereferenceable(32) %0, ptr noundef nonnull align 8 dereferenceable(32) %1) #7 comdat {
  %3 = alloca ptr, align 8
  %4 = alloca ptr, align 8
  store ptr %0, ptr %3, align 8, !tbaa !58
  store ptr %1, ptr %4, align 8, !tbaa !58
  %5 = load ptr, ptr %4, align 8, !tbaa !58
  %6 = load ptr, ptr %3, align 8, !tbaa !58
  %7 = call noundef zeroext i1 @_ZltRK8rationalS1_(ptr noundef nonnull align 8 dereferenceable(32) %5, ptr noundef nonnull align 8 dereferenceable(32) %6)
  ret i1 %7
}

; Function Attrs: mustprogress uwtable
define linkonce_odr hidden noundef nonnull align 8 dereferenceable(32) ptr @_ZN7obj_mapI4expr8rationalEixEPS0_(ptr noundef nonnull align 8 dereferenceable(24) %0, ptr noundef %1) #6 comdat align 2 {
  %3 = alloca ptr, align 8
  %4 = alloca ptr, align 8
  store ptr %0, ptr %3, align 8, !tbaa !63
  store ptr %1, ptr %4, align 8, !tbaa !75
  %5 = load ptr, ptr %3, align 8
  %6 = load ptr, ptr %4, align 8, !tbaa !75
  %7 = call noundef nonnull align 8 dereferenceable(32) ptr @_ZN7obj_mapI4expr8rationalE4findEPS0_(ptr noundef nonnull align 8 dereferenceable(24) %5, ptr noundef %6)
  ret ptr %7
}

; Function Attrs: inlinehint mustprogress uwtable
define internal noundef zeroext i1 @"_ZZN3opt5cores20check_sat_hill_climbERK10ref_vectorI4expr11ast_managerEENK3$_0clEPS2_S8_"(ptr noundef nonnull align 8 dereferenceable(8) %0, ptr noundef %1, ptr noundef %2) #7 align 2 {
  %4 = alloca ptr, align 8
  %5 = alloca ptr, align 8
  %6 = alloca ptr, align 8
  store ptr %0, ptr %4, align 8, !tbaa !220
  store ptr %1, ptr %5, align 8, !tbaa !75
  store ptr %2, ptr %6, align 8, !tbaa !75
  %7 = load ptr, ptr %4, align 8
  %8 = getelementptr inbounds nuw %class.anon.70, ptr %7, i32 0, i32 0
  %9 = load ptr, ptr %8, align 8, !tbaa !164
  %10 = getelementptr inbounds nuw %"class.opt::cores", ptr %9, i32 0, i32 7
  %11 = load ptr, ptr %5, align 8, !tbaa !75
  %12 = call noundef nonnull align 8 dereferenceable(32) ptr @_ZN7obj_mapI4expr8rationalEixEPS0_(ptr noundef nonnull align 8 dereferenceable(24) %10, ptr noundef %11)
  %13 = getelementptr inbounds nuw %"class.opt::cores", ptr %9, i32 0, i32 7
  %14 = load ptr, ptr %6, align 8, !tbaa !75
  %15 = call noundef nonnull align 8 dereferenceable(32) ptr @_ZN7obj_mapI4expr8rationalEixEPS0_(ptr noundef nonnull align 8 dereferenceable(24) %13, ptr noundef %14)
  %16 = call noundef zeroext i1 @_ZgtRK8rationalS1_(ptr noundef nonnull align 8 dereferenceable(32) %12, ptr noundef nonnull align 8 dereferenceable(32) %15)
  ret i1 %16
}

; Function Attrs: mustprogress uwtable
define internal noundef zeroext i1 @"_ZN9__gnu_cxx5__ops14_Val_comp_iterIZN3opt5cores20check_sat_hill_climbERK10ref_vectorI4expr11ast_managerEE3$_0EclIPS5_PSD_EEbRT_T0_"(ptr noundef nonnull align 8 dereferenceable(8) %0, ptr noundef nonnull align 8 dereferenceable(8) %1, ptr noundef %2) #6 align 2 {
  %4 = alloca ptr, align 8
  %5 = alloca ptr, align 8
  %6 = alloca ptr, align 8
  store ptr %0, ptr %4, align 8, !tbaa !280
  store ptr %1, ptr %5, align 8, !tbaa !72
  store ptr %2, ptr %6, align 8, !tbaa !72
  %7 = load ptr, ptr %4, align 8
  %8 = getelementptr inbounds nuw %"struct.__gnu_cxx::__ops::_Val_comp_iter.73", ptr %7, i32 0, i32 0
  %9 = load ptr, ptr %5, align 8, !tbaa !72
  %10 = load ptr, ptr %9, align 8, !tbaa !75
  %11 = load ptr, ptr %6, align 8, !tbaa !72
  %12 = load ptr, ptr %11, align 8, !tbaa !75
  %13 = call noundef zeroext i1 @"_ZZN3opt5cores20check_sat_hill_climbERK10ref_vectorI4expr11ast_managerEENK3$_0clEPS2_S8_"(ptr noundef nonnull align 8 dereferenceable(8) %8, ptr noundef %10, ptr noundef %12)
  ret i1 %13
}

; Function Attrs: mustprogress uwtable
define internal void @"_ZSt25__unguarded_linear_insertIPP4exprN9__gnu_cxx5__ops14_Val_comp_iterIZN3opt5cores20check_sat_hill_climbERK10ref_vectorIS0_11ast_managerEE3$_0EEEvT_T0_"(ptr noundef %0, ptr %1) #6 {
  %3 = alloca %"struct.__gnu_cxx::__ops::_Val_comp_iter.73", align 8
  %4 = alloca ptr, align 8
  %5 = alloca ptr, align 8
  %6 = alloca ptr, align 8
  %7 = getelementptr inbounds nuw %"struct.__gnu_cxx::__ops::_Val_comp_iter.73", ptr %3, i32 0, i32 0
  %8 = getelementptr inbounds nuw %class.anon.70, ptr %7, i32 0, i32 0
  store ptr %1, ptr %8, align 8
  store ptr %0, ptr %4, align 8, !tbaa !72
  call void @llvm.lifetime.start.p0(i64 8, ptr %5) #3
  %9 = load ptr, ptr %4, align 8, !tbaa !72
  %10 = load ptr, ptr %9, align 8, !tbaa !75
  store ptr %10, ptr %5, align 8, !tbaa !75
  call void @llvm.lifetime.start.p0(i64 8, ptr %6) #3
  %11 = load ptr, ptr %4, align 8, !tbaa !72
  store ptr %11, ptr %6, align 8, !tbaa !72
  %12 = load ptr, ptr %6, align 8, !tbaa !72
  %13 = getelementptr inbounds ptr, ptr %12, i32 -1
  store ptr %13, ptr %6, align 8, !tbaa !72
  br label %14

14:                                               ; preds = %17, %2
  %15 = load ptr, ptr %6, align 8, !tbaa !72
  %16 = call noundef zeroext i1 @"_ZN9__gnu_cxx5__ops14_Val_comp_iterIZN3opt5cores20check_sat_hill_climbERK10ref_vectorI4expr11ast_managerEE3$_0EclIPS5_PSD_EEbRT_T0_"(ptr noundef nonnull align 8 dereferenceable(8) %3, ptr noundef nonnull align 8 dereferenceable(8) %5, ptr noundef %15)
  br i1 %16, label %17, label %24

17:                                               ; preds = %14
  %18 = load ptr, ptr %6, align 8, !tbaa !72
  %19 = load ptr, ptr %18, align 8, !tbaa !75
  %20 = load ptr, ptr %4, align 8, !tbaa !72
  store ptr %19, ptr %20, align 8, !tbaa !75
  %21 = load ptr, ptr %6, align 8, !tbaa !72
  store ptr %21, ptr %4, align 8, !tbaa !72
  %22 = load ptr, ptr %6, align 8, !tbaa !72
  %23 = getelementptr inbounds ptr, ptr %22, i32 -1
  store ptr %23, ptr %6, align 8, !tbaa !72
  br label %14, !llvm.loop !279

24:                                               ; preds = %14
  %25 = load ptr, ptr %5, align 8, !tbaa !75
  %26 = load ptr, ptr %4, align 8, !tbaa !72
  store ptr %25, ptr %26, align 8, !tbaa !75
  call void @llvm.lifetime.end.p0(i64 8, ptr %6) #3
  call void @llvm.lifetime.end.p0(i64 8, ptr %5) #3
  ret void
}