; Function Attrs: mustprogress uwtable
define internal fastcc void @"_ZSt25__unguarded_linear_insertIPP4exprN9__gnu_cxx5__ops14_Val_comp_iterIZN3opt5cores20check_sat_hill_climbERK10ref_vectorIS0_11ast_managerEE3$_0EEEvT_T0_"(ptr noundef captures(none) %0, ptr %1) unnamed_addr #4 {
  %3 = load ptr, ptr %0, align 8, !tbaa !54
  %4 = getelementptr inbounds nuw i8, ptr %1, i64 72
  br label %5

5:                                                ; preds = %46, %2
  %.09 = phi ptr [ %0, %2 ], [ %.0, %46 ]
  %.0 = getelementptr inbounds i8, ptr %.09, i64 -8
  %.0.val = load ptr, ptr %.0, align 8, !tbaa !54
  %6 = tail call noundef ptr @_ZNK7obj_mapI4expr8rationalE9find_coreEPS0_(ptr noundef nonnull align 8 dereferenceable(24) %4, ptr noundef %3)
  %7 = getelementptr inbounds nuw i8, ptr %6, i64 8
  %8 = tail call noundef ptr @_ZNK7obj_mapI4expr8rationalE9find_coreEPS0_(ptr noundef nonnull align 8 dereferenceable(24) %4, ptr noundef %.0.val)
  %9 = getelementptr inbounds nuw i8, ptr %8, i64 8
  %10 = load ptr, ptr @_ZN8rational13g_mpq_managerE, align 8, !tbaa !21
  %11 = getelementptr inbounds nuw i8, ptr %8, i64 24
  %12 = getelementptr inbounds nuw i8, ptr %8, i64 28
  %13 = load i8, ptr %12, align 4
  %14 = and i8 %13, 1
  %15 = icmp eq i8 %14, 0
  %16 = load i32, ptr %11, align 8
  %17 = icmp eq i32 %16, 1
  %18 = select i1 %15, i1 %17, i1 false
  br i1 %18, label %19, label %42

19:                                               ; preds = %5
  %20 = getelementptr inbounds nuw i8, ptr %6, i64 24
  %21 = getelementptr inbounds nuw i8, ptr %6, i64 28
  %22 = load i8, ptr %21, align 4
  %23 = and i8 %22, 1
  %24 = icmp eq i8 %23, 0
  %25 = load i32, ptr %20, align 8
  %26 = icmp eq i32 %25, 1
  %27 = select i1 %24, i1 %26, i1 false
  br i1 %27, label %28, label %42

28:                                               ; preds = %19
  %29 = getelementptr inbounds nuw i8, ptr %8, i64 12
  %30 = load i8, ptr %29, align 4
  %31 = and i8 %30, 1
  %32 = icmp eq i8 %31, 0
  br i1 %32, label %33, label %"_ZN9__gnu_cxx5__ops14_Val_comp_iterIZN3opt5cores20check_sat_hill_climbERK10ref_vectorI4expr11ast_managerEE3$_0EclIPS5_PSD_EEbRT_T0_.exit"

33:                                               ; preds = %28
  %34 = getelementptr inbounds nuw i8, ptr %6, i64 12
  %35 = load i8, ptr %34, align 4
  %36 = and i8 %35, 1
  %37 = icmp eq i8 %36, 0
  br i1 %37, label %38, label %"_ZN9__gnu_cxx5__ops14_Val_comp_iterIZN3opt5cores20check_sat_hill_climbERK10ref_vectorI4expr11ast_managerEE3$_0EclIPS5_PSD_EEbRT_T0_.exit"

38:                                               ; preds = %33
  %39 = load i32, ptr %9, align 8, !tbaa !17
  %40 = load i32, ptr %7, align 8, !tbaa !17
  %41 = icmp slt i32 %39, %40
  br i1 %41, label %46, label %48

42:                                               ; preds = %19, %5
  %43 = tail call noundef zeroext i1 @_ZN11mpq_managerILb1EE6rat_ltERK3mpqS3_(ptr noundef nonnull align 8 dereferenceable(728) %10, ptr noundef nonnull align 8 dereferenceable(32) %9, ptr noundef nonnull align 8 dereferenceable(32) %7)
  br i1 %43, label %46, label %48

"_ZN9__gnu_cxx5__ops14_Val_comp_iterIZN3opt5cores20check_sat_hill_climbERK10ref_vectorI4expr11ast_managerEE3$_0EclIPS5_PSD_EEbRT_T0_.exit": ; preds = %28, %33
  %44 = tail call noundef i32 @_ZN11mpz_managerILb1EE11big_compareERK3mpzS3_(ptr noundef nonnull align 8 dereferenceable(728) %10, ptr noundef nonnull align 8 dereferenceable(32) %9, ptr noundef nonnull align 8 dereferenceable(32) %7)
  %45 = icmp slt i32 %44, 0
  br i1 %45, label %46, label %48

46:                                               ; preds = %38, %42, %"_ZN9__gnu_cxx5__ops14_Val_comp_iterIZN3opt5cores20check_sat_hill_climbERK10ref_vectorI4expr11ast_managerEE3$_0EclIPS5_PSD_EEbRT_T0_.exit"
  %47 = load ptr, ptr %.0, align 8, !tbaa !54
  store ptr %47, ptr %.09, align 8, !tbaa !54
  br label %5, !llvm.loop !223

48:                                               ; preds = %38, %42, %"_ZN9__gnu_cxx5__ops14_Val_comp_iterIZN3opt5cores20check_sat_hill_climbERK10ref_vectorI4expr11ast_managerEE3$_0EclIPS5_PSD_EEbRT_T0_.exit"
  store ptr %3, ptr %.09, align 8, !tbaa !54
  ret void
}